target datalayout = "e-m:e-p270:32:32-p271:32:32-p272:64:64-i64:64-i128:128-f80:128-n8:16:32:64-S128"
target triple = "x86_64-pc-linux-gnu"

@.str.25 = private unnamed_addr constant [23 x i8] c"NonNMethodCodeHeapSize\00", align 1
@.str.26 = private unnamed_addr constant [24 x i8] c"NonProfiledCodeHeapSize\00", align 1
@.str.27 = private unnamed_addr constant [21 x i8] c"ProfiledCodeHeapSize\00", align 1
@g_assert_poison = external global ptr, align 8
@.str.28 = private unnamed_addr constant [37 x i8] c"src/hotspot/share/code/codeCache.cpp\00", align 1

; Function Attrs: mustprogress nounwind uwtable
define hidden noundef ptr @_ZN9CodeCache23get_code_heap_flag_nameE12CodeBlobType(i32 noundef %0) #1 align 2 {
  %2 = alloca ptr, align 8
  %3 = alloca i32, align 4
  store i32 %0, ptr %3, align 4
  %4 = load i32, ptr %3, align 4
  switch i32 %4, label %8 [
    i32 2, label %5
    i32 0, label %6
    i32 1, label %7
  ]

5:                                                ; preds = %1
  store ptr @.str.25, ptr %2, align 8
  br label %12

6:                                                ; preds = %1
  store ptr @.str.26, ptr %2, align 8
  br label %12

7:                                                ; preds = %1
  store ptr @.str.27, ptr %2, align 8
  br label %12

8:                                                ; preds = %1
  br label %9

9:                                                ; preds = %8
  %10 = load ptr, ptr @g_assert_poison, align 8
  store i8 88, ptr %10, align 1
  call void @_Z28report_should_not_reach_herePKci(ptr noundef @.str.28, i32 noundef 397) #11
  unreachable

11:                                               ; No predecessors!
  store ptr null, ptr %2, align 8
  br label %12

12:                                               ; preds = %11, %7, %6, %5
  %13 = load ptr, ptr %2, align 8
  ret ptr %13
}